; Function Attrs: mustprogress nounwind uwtable
define void @_ZN32pxrInternal_v0_24__pxrReserved__17UsdGeomXformCache5ClearEv(ptr noundef nonnull align 8 captures(none) dereferenceable(64) %0) local_unnamed_addr #3 align 2 personality ptr @__gxx_personality_v0 {
  %2 = getelementptr inbounds nuw i8, ptr %0, i64 16
  %3 = load ptr, ptr %2, align 8
  %.not5.i.i.i = icmp eq ptr %3, null
  br i1 %.not5.i.i.i, label %_ZNSt13unordered_mapIN32pxrInternal_v0_24__pxrReserved__7UsdPrimENS0_17UsdGeomXformCache6_EntryENS0_6TfHashESt8equal_toIS1_ESaISt4pairIKS1_S3_EEE5clearEv.exit, label %.lr.ph.i.i.i

.lr.ph.i.i.i:                                     ; preds = %1, %.lr.ph.i.i.i
  %.06.i.i.i = phi ptr [ %4, %.lr.ph.i.i.i ], [ %3, %1 ]
  %4 = load ptr, ptr %.06.i.i.i, align 8
  %5 = getelementptr inbounds nuw i8, ptr %.06.i.i.i, i64 8
  tail call void @_ZNSt4pairIKN32pxrInternal_v0_24__pxrReserved__7UsdPrimENS0_17UsdGeomXformCache6_EntryEED2Ev(ptr noundef nonnull align 8 dereferenceable(200) %5) #16
  tail call void @_ZdlPvm(ptr noundef nonnull %.06.i.i.i, i64 noundef 216) #18
  %.not.i.i.i = icmp eq ptr %4, null
  br i1 %.not.i.i.i, label %_ZNSt13unordered_mapIN32pxrInternal_v0_24__pxrReserved__7UsdPrimENS0_17UsdGeomXformCache6_EntryENS0_6TfHashESt8equal_toIS1_ESaISt4pairIKS1_S3_EEE5clearEv.exit, label %.lr.ph.i.i.i, !llvm.loop !14

_ZNSt13unordered_mapIN32pxrInternal_v0_24__pxrReserved__7UsdPrimENS0_17UsdGeomXformCache6_EntryENS0_6TfHashESt8equal_toIS1_ESaISt4pairIKS1_S3_EEE5clearEv.exit: ; preds = %.lr.ph.i.i.i, %1
  %6 = load ptr, ptr %0, align 8
  %7 = getelementptr inbounds nuw i8, ptr %0, i64 8
  %8 = load i64, ptr %7, align 8
  %9 = shl i64 %8, 3
  tail call void @llvm.memset.p0.i64(ptr align 8 %6, i8 0, i64 %9, i1 false)
  tail call void @llvm.memset.p0.i64(ptr noundef nonnull align 8 dereferenceable(16) %2, i8 0, i64 16, i1 false)
  ret void
}